target datalayout = "e-m:e-p270:32:32-p271:32:32-p272:64:64-i64:64-i128:128-f80:128-n8:16:32:64-S128"
target triple = "x86_64-pc-linux-gnu"

%struct.RBasic = type { i64, i64 }
%struct.rb_execarg = type { %union.anon.13, i64, i64, i64, i64, i16, ptr, ptr, i32, i64, i32, i32, i32, i32, i64, i64, i64, i64, i64, i64, i64 }
%union.anon.13 = type { %struct.anon.15 }
%struct.anon.15 = type { i64, i64, i64, i64 }

@.str.201 = private unnamed_addr constant [4 x i8] c"dup\00", align 1
@.str.202 = private unnamed_addr constant [15 x i8] c"fcntl(F_GETFD)\00", align 1

; Function Attrs: inlinehint nounwind sspstrong uwtable
define internal void @RBASIC_SET_CLASS_RAW(i64 noundef %0, i64 noundef %1) #1 {
  %3 = alloca i64, align 8
  %4 = alloca i64, align 8
  %5 = alloca ptr, align 8
  store i64 %0, ptr %3, align 8, !tbaa !35
  store i64 %1, ptr %4, align 8, !tbaa !35
  call void @llvm.lifetime.start.p0(i64 8, ptr %5) #27
  %6 = load i64, ptr %3, align 8, !tbaa !35
  %7 = inttoptr i64 %6 to ptr
  %8 = getelementptr inbounds nuw %struct.RBasic, ptr %7, i32 0, i32 1
  store ptr %8, ptr %5, align 8, !tbaa !70
  %9 = load i64, ptr %4, align 8, !tbaa !35
  %10 = load ptr, ptr %5, align 8, !tbaa !70
  store i64 %9, ptr %10, align 8, !tbaa !35
  call void @llvm.lifetime.end.p0(i64 8, ptr %5) #27
  ret void
}

; Function Attrs: inlinehint nounwind sspstrong uwtable
define internal void @RBASIC_CLEAR_CLASS(i64 noundef %0) #1 {
  %2 = alloca i64, align 8
  store i64 %0, ptr %2, align 8, !tbaa !35
  %3 = load i64, ptr %2, align 8, !tbaa !35
  call void @RBASIC_SET_CLASS_RAW(i64 noundef %3, i64 noundef 0)
  ret void
}

; Function Attrs: inlinehint nounwind sspstrong willreturn memory(none) uwtable
define internal i64 @RB_INT2FIX(i64 noundef %0) #4 {
  %2 = alloca i64, align 8
  %3 = alloca i64, align 8
  %4 = alloca i64, align 8
  %5 = alloca i64, align 8
  %6 = alloca i64, align 8
  %7 = alloca i64, align 8
  store i64 %0, ptr %2, align 8, !tbaa !35
  call void @llvm.lifetime.start.p0(i64 8, ptr %3) #27
  %8 = load i64, ptr %2, align 8, !tbaa !35
  store i64 %8, ptr %3, align 8, !tbaa !35
  call void @llvm.lifetime.start.p0(i64 8, ptr %4) #27
  %9 = load i64, ptr %3, align 8, !tbaa !35
  %10 = shl i64 %9, 1
  %11 = add i64 %10, 1
  store i64 %11, ptr %4, align 8, !tbaa !35
  call void @llvm.lifetime.start.p0(i64 8, ptr %5) #27
  %12 = load i64, ptr %4, align 8, !tbaa !35
  store i64 %12, ptr %5, align 8, !tbaa !35
  call void @llvm.lifetime.start.p0(i64 8, ptr %6) #27
  %13 = load i64, ptr %5, align 8, !tbaa !35
  store i64 %13, ptr %6, align 8, !tbaa !35
  call void @llvm.lifetime.start.p0(i64 8, ptr %7) #27
  %14 = load i64, ptr %6, align 8, !tbaa !35
  store i64 %14, ptr %7, align 8, !tbaa !35
  %15 = load i64, ptr %7, align 8, !tbaa !35
  call void @llvm.lifetime.end.p0(i64 8, ptr %7) #27
  call void @llvm.lifetime.end.p0(i64 8, ptr %6) #27
  call void @llvm.lifetime.end.p0(i64 8, ptr %5) #27
  call void @llvm.lifetime.end.p0(i64 8, ptr %4) #27
  call void @llvm.lifetime.end.p0(i64 8, ptr %3) #27
  ret i64 %15
}

; Function Attrs: nounwind sspstrong uwtable
define internal i32 @fd_get_cloexec(i32 noundef %0, ptr noundef %1, i64 noundef %2) #0 {
  %4 = alloca i32, align 4
  %5 = alloca i32, align 4
  %6 = alloca ptr, align 8
  %7 = alloca i64, align 8
  %8 = alloca i32, align 4
  %9 = alloca i32, align 4
  store i32 %0, ptr %5, align 4, !tbaa !34
  store ptr %1, ptr %6, align 8, !tbaa !64
  store i64 %2, ptr %7, align 8, !tbaa !35
  call void @llvm.lifetime.start.p0(i64 4, ptr %8) #27
  store i32 0, ptr %8, align 4, !tbaa !34
  %10 = load i32, ptr %5, align 4, !tbaa !34
  %11 = call i32 (i32, i32, ...) @fcntl(i32 noundef %10, i32 noundef 1)
  store i32 %11, ptr %8, align 4, !tbaa !34
  %12 = load i32, ptr %8, align 4, !tbaa !34
  %13 = icmp eq i32 %12, -1
  br i1 %13, label %14, label %26

14:                                               ; preds = %3
  %15 = load ptr, ptr %6, align 8, !tbaa !64
  %16 = icmp ne ptr %15, null
  br i1 %16, label %17, label %24

17:                                               ; preds = %14
  %18 = load i64, ptr %7, align 8, !tbaa !35
  %19 = icmp ult i64 0, %18
  br i1 %19, label %20, label %24

20:                                               ; preds = %17
  %21 = load ptr, ptr %6, align 8, !tbaa !64
  %22 = load i64, ptr %7, align 8, !tbaa !35
  %23 = call i64 @strlcpy(ptr noundef %21, ptr noundef @.str.202, i64 noundef %22)
  br label %25

24:                                               ; preds = %17, %14
  br label %25

25:                                               ; preds = %24, %20
  store i32 -1, ptr %4, align 4
  store i32 1, ptr %9, align 4
  br label %32

26:                                               ; preds = %3
  %27 = load i32, ptr %8, align 4, !tbaa !34
  %28 = and i32 %27, 1
  %29 = icmp ne i32 %28, 0
  br i1 %29, label %30, label %31

30:                                               ; preds = %26
  store i32 1, ptr %4, align 4
  store i32 1, ptr %9, align 4
  br label %32

31:                                               ; preds = %26
  store i32 0, ptr %4, align 4
  store i32 1, ptr %9, align 4
  br label %32

32:                                               ; preds = %31, %30, %25
  call void @llvm.lifetime.end.p0(i64 4, ptr %8) #27
  %33 = load i32, ptr %4, align 4
  ret i32 %33
}

; Function Attrs: nounwind sspstrong uwtable
define internal i64 @hide_obj(i64 noundef %0) #0 {
  %2 = alloca i64, align 8
  store i64 %0, ptr %2, align 8, !tbaa !35
  %3 = load i64, ptr %2, align 8, !tbaa !35
  call void @RBASIC_CLEAR_CLASS(i64 noundef %3)
  %4 = load i64, ptr %2, align 8, !tbaa !35
  ret i64 %4
}

; Function Attrs: nounwind sspstrong uwtable
define internal i32 @save_redirect_fd(i32 noundef %0, ptr noundef %1, ptr noundef %2, i64 noundef %3) #0 {
  %5 = alloca i32, align 4
  %6 = alloca i32, align 4
  %7 = alloca ptr, align 8
  %8 = alloca ptr, align 8
  %9 = alloca i64, align 8
  %10 = alloca i64, align 8
  %11 = alloca i64, align 8
  %12 = alloca i32, align 4
  %13 = alloca i32, align 4
  %14 = alloca i32, align 4
  store i32 %0, ptr %6, align 4, !tbaa !34
  store ptr %1, ptr %7, align 8, !tbaa !68
  store ptr %2, ptr %8, align 8, !tbaa !64
  store i64 %3, ptr %9, align 8, !tbaa !35
  %15 = load ptr, ptr %7, align 8, !tbaa !68
  %16 = icmp ne ptr %15, null
  br i1 %16, label %17, label %96

17:                                               ; preds = %4
  call void @llvm.lifetime.start.p0(i64 8, ptr %10) #27
  call void @llvm.lifetime.start.p0(i64 8, ptr %11) #27
  call void @llvm.lifetime.start.p0(i64 4, ptr %12) #27
  %18 = load i32, ptr %6, align 4, !tbaa !34
  %19 = call i32 @rb_cloexec_dup(i32 noundef %18)
  store i32 %19, ptr %12, align 4, !tbaa !34
  call void @llvm.lifetime.start.p0(i64 4, ptr %13) #27
  %20 = load i32, ptr %12, align 4, !tbaa !34
  %21 = icmp eq i32 %20, -1
  br i1 %21, label %22, label %39

22:                                               ; preds = %17
  %23 = call ptr @rb_errno_ptr()
  %24 = load i32, ptr %23, align 4, !tbaa !34
  %25 = icmp eq i32 %24, 9
  br i1 %25, label %26, label %27

26:                                               ; preds = %22
  store i32 0, ptr %5, align 4
  store i32 1, ptr %14, align 4
  br label %93

27:                                               ; preds = %22
  %28 = load ptr, ptr %8, align 8, !tbaa !64
  %29 = icmp ne ptr %28, null
  br i1 %29, label %30, label %37

30:                                               ; preds = %27
  %31 = load i64, ptr %9, align 8, !tbaa !35
  %32 = icmp ult i64 0, %31
  br i1 %32, label %33, label %37

33:                                               ; preds = %30
  %34 = load ptr, ptr %8, align 8, !tbaa !64
  %35 = load i64, ptr %9, align 8, !tbaa !35
  %36 = call i64 @strlcpy(ptr noundef %34, ptr noundef @.str.201, i64 noundef %35)
  br label %38

37:                                               ; preds = %30, %27
  br label %38

38:                                               ; preds = %37, %33
  store i32 -1, ptr %5, align 4
  store i32 1, ptr %14, align 4
  br label %93

39:                                               ; preds = %17
  %40 = load i32, ptr %12, align 4, !tbaa !34
  call void @rb_update_max_fd(i32 noundef %40)
  %41 = load ptr, ptr %7, align 8, !tbaa !68
  %42 = getelementptr inbounds nuw %struct.rb_execarg, ptr %41, i32 0, i32 14
  %43 = load i64, ptr %42, align 8, !tbaa !84
  store i64 %43, ptr %10, align 8, !tbaa !35
  %44 = load i64, ptr %10, align 8, !tbaa !35
  %45 = icmp eq i64 %44, 0
  br i1 %45, label %46, label %52

46:                                               ; preds = %39
  %47 = call i64 @rb_ary_new()
  %48 = call i64 @hide_obj(i64 noundef %47)
  store i64 %48, ptr %10, align 8, !tbaa !35
  %49 = load i64, ptr %10, align 8, !tbaa !35
  %50 = load ptr, ptr %7, align 8, !tbaa !68
  %51 = getelementptr inbounds nuw %struct.rb_execarg, ptr %50, i32 0, i32 14
  store i64 %49, ptr %51, align 8, !tbaa !84
  br label %52

52:                                               ; preds = %46, %39
  %53 = load i32, ptr %6, align 4, !tbaa !34
  %54 = load ptr, ptr %8, align 8, !tbaa !64
  %55 = load i64, ptr %9, align 8, !tbaa !35
  %56 = call i32 @fd_get_cloexec(i32 noundef %53, ptr noundef %54, i64 noundef %55)
  store i32 %56, ptr %13, align 4, !tbaa !34
  %57 = load i32, ptr %6, align 4, !tbaa !34
  %58 = sext i32 %57 to i64
  %59 = call i64 @RB_INT2FIX(i64 noundef %58) #28
  %60 = load i32, ptr %12, align 4, !tbaa !34
  %61 = sext i32 %60 to i64
  %62 = call i64 @RB_INT2FIX(i64 noundef %61) #28
  %63 = call i64 @rb_assoc_new(i64 noundef %59, i64 noundef %62)
  %64 = call i64 @hide_obj(i64 noundef %63)
  store i64 %64, ptr %11, align 8, !tbaa !35
  %65 = load i32, ptr %13, align 4, !tbaa !34
  %66 = icmp ne i32 %65, 0
  br i1 %66, label %67, label %70

67:                                               ; preds = %52
  %68 = load i64, ptr %11, align 8, !tbaa !35
  %69 = call i64 @rb_ary_push(i64 noundef %68, i64 noundef 20)
  br label %70

70:                                               ; preds = %67, %52
  %71 = load i64, ptr %10, align 8, !tbaa !35
  %72 = load i64, ptr %11, align 8, !tbaa !35
  %73 = call i64 @rb_ary_push(i64 noundef %71, i64 noundef %72)
  %74 = load ptr, ptr %7, align 8, !tbaa !68
  %75 = getelementptr inbounds nuw %struct.rb_execarg, ptr %74, i32 0, i32 15
  %76 = load i64, ptr %75, align 8, !tbaa !83
  store i64 %76, ptr %10, align 8, !tbaa !35
  %77 = load i64, ptr %10, align 8, !tbaa !35
  %78 = icmp eq i64 %77, 0
  br i1 %78, label %79, label %85

79:                                               ; preds = %70
  %80 = call i64 @rb_ary_new()
  %81 = call i64 @hide_obj(i64 noundef %80)
  store i64 %81, ptr %10, align 8, !tbaa !35
  %82 = load i64, ptr %10, align 8, !tbaa !35
  %83 = load ptr, ptr %7, align 8, !tbaa !68
  %84 = getelementptr inbounds nuw %struct.rb_execarg, ptr %83, i32 0, i32 15
  store i64 %82, ptr %84, align 8, !tbaa !83
  br label %85

85:                                               ; preds = %79, %70
  %86 = load i64, ptr %10, align 8, !tbaa !35
  %87 = load i32, ptr %12, align 4, !tbaa !34
  %88 = sext i32 %87 to i64
  %89 = call i64 @RB_INT2FIX(i64 noundef %88) #28
  %90 = call i64 @rb_assoc_new(i64 noundef %89, i64 noundef 4)
  %91 = call i64 @hide_obj(i64 noundef %90)
  %92 = call i64 @rb_ary_push(i64 noundef %86, i64 noundef %91)
  store i32 0, ptr %14, align 4
  br label %93

93:                                               ; preds = %85, %38, %26
  call void @llvm.lifetime.end.p0(i64 4, ptr %13) #27
  call void @llvm.lifetime.end.p0(i64 4, ptr %12) #27
  call void @llvm.lifetime.end.p0(i64 8, ptr %11) #27
  call void @llvm.lifetime.end.p0(i64 8, ptr %10) #27
  %94 = load i32, ptr %14, align 4
  switch i32 %94, label %99 [
    i32 0, label %95
    i32 1, label %97
  ]

95:                                               ; preds = %93
  br label %96

96:                                               ; preds = %95, %4
  store i32 0, ptr %5, align 4
  br label %97

97:                                               ; preds = %96, %93
  %98 = load i32, ptr %5, align 4
  ret i32 %98

99:                                               ; preds = %93
  unreachable
}