; Function Attrs: nounwind sspstrong uwtable
define internal fastcc range(i32 -1, 1) i32 @save_redirect_fd(i32 noundef %0, ptr noundef captures(address_is_null) %1, ptr noundef %2, i64 noundef %3) unnamed_addr #1 {
  %.not = icmp eq ptr %1, null
  br i1 %.not, label %.thread, label %5

5:                                                ; preds = %4
  %6 = tail call i32 @rb_cloexec_dup(i32 noundef %0) #27
  %7 = icmp eq i32 %6, -1
  br i1 %7, label %8, label %17

8:                                                ; preds = %5
  %9 = tail call ptr @rb_errno_ptr() #27
  %10 = load i32, ptr %9, align 4, !tbaa !60
  %11 = icmp eq i32 %10, 9
  br i1 %11, label %.thread, label %12

12:                                               ; preds = %8
  %13 = icmp ne ptr %2, null
  %14 = icmp ne i64 %3, 0
  %or.cond = and i1 %13, %14
  br i1 %or.cond, label %15, label %.thread

15:                                               ; preds = %12
  %16 = tail call i64 @strlcpy(ptr noundef nonnull %2, ptr noundef nonnull dereferenceable(1) @.str.201, i64 noundef %3) #27
  br label %.thread

17:                                               ; preds = %5
  tail call void @rb_update_max_fd(i32 noundef %6) #27
  %18 = getelementptr inbounds nuw i8, ptr %1, i64 120
  %19 = load i64, ptr %18, align 8, !tbaa !89
  %20 = icmp eq i64 %19, 0
  br i1 %20, label %21, label %25

21:                                               ; preds = %17
  %22 = tail call i64 @rb_ary_new() #27
  %23 = inttoptr i64 %22 to ptr
  %24 = getelementptr inbounds nuw i8, ptr %23, i64 8
  store i64 0, ptr %24, align 8, !tbaa !43
  store i64 %22, ptr %18, align 8, !tbaa !89
  br label %25

25:                                               ; preds = %21, %17
  %.030 = phi i64 [ %22, %21 ], [ %19, %17 ]
  %26 = tail call i32 (i32, i32, ...) @fcntl(i32 noundef %0, i32 noundef 1) #27
  %27 = icmp eq i32 %26, -1
  br i1 %27, label %28, label %33

28:                                               ; preds = %25
  %29 = icmp ne ptr %2, null
  %30 = icmp ne i64 %3, 0
  %or.cond.i = and i1 %29, %30
  br i1 %or.cond.i, label %31, label %fd_get_cloexec.exit

31:                                               ; preds = %28
  %32 = tail call i64 @strlcpy(ptr noundef nonnull %2, ptr noundef nonnull dereferenceable(1) @.str.202, i64 noundef %3) #27
  br label %fd_get_cloexec.exit

33:                                               ; preds = %25
  %34 = and i32 %26, 1
  %35 = icmp eq i32 %34, 0
  br label %fd_get_cloexec.exit

fd_get_cloexec.exit:                              ; preds = %28, %31, %33
  %.0.i = phi i1 [ false, %28 ], [ false, %31 ], [ %35, %33 ]
  %36 = sext i32 %0 to i64
  %37 = shl nsw i64 %36, 1
  %38 = or disjoint i64 %37, 1
  %39 = sext i32 %6 to i64
  %40 = shl nsw i64 %39, 1
  %41 = or disjoint i64 %40, 1
  %42 = tail call i64 @rb_assoc_new(i64 noundef %38, i64 noundef %41) #27
  %43 = inttoptr i64 %42 to ptr
  %44 = getelementptr inbounds nuw i8, ptr %43, i64 8
  store i64 0, ptr %44, align 8, !tbaa !43
  br i1 %.0.i, label %47, label %45

45:                                               ; preds = %fd_get_cloexec.exit
  %46 = tail call i64 @rb_ary_push(i64 noundef %42, i64 noundef 20) #27
  br label %47

47:                                               ; preds = %45, %fd_get_cloexec.exit
  %48 = tail call i64 @rb_ary_push(i64 noundef %.030, i64 noundef %42) #27
  %49 = getelementptr inbounds nuw i8, ptr %1, i64 128
  %50 = load i64, ptr %49, align 8, !tbaa !88
  %51 = icmp eq i64 %50, 0
  br i1 %51, label %52, label %56

52:                                               ; preds = %47
  %53 = tail call i64 @rb_ary_new() #27
  %54 = inttoptr i64 %53 to ptr
  %55 = getelementptr inbounds nuw i8, ptr %54, i64 8
  store i64 0, ptr %55, align 8, !tbaa !43
  store i64 %53, ptr %49, align 8, !tbaa !88
  br label %56

56:                                               ; preds = %47, %52
  %.131 = phi i64 [ %53, %52 ], [ %50, %47 ]
  %57 = tail call i64 @rb_assoc_new(i64 noundef %41, i64 noundef 4) #27
  %58 = inttoptr i64 %57 to ptr
  %59 = getelementptr inbounds nuw i8, ptr %58, i64 8
  store i64 0, ptr %59, align 8, !tbaa !43
  %60 = tail call i64 @rb_ary_push(i64 noundef %.131, i64 noundef %57) #27
  br label %.thread

.thread:                                          ; preds = %8, %12, %15, %4, %56
  %.1 = phi i32 [ 0, %56 ], [ 0, %4 ], [ -1, %15 ], [ -1, %12 ], [ 0, %8 ]
  ret i32 %.1
}